(dp0
I0
(dp1
sI1
(dp2
sI2
(dp3
sI3
(dp4
sI4
(dp5
sI5
(dp6
sI6
(dp7
sI7
(dp8
sI8
(dp9
sI9
(dp10
sI10
(dp11
sI11
(dp12
sI12
(dp13
sI13
(dp14
sI14
(dp15
sI15
(dp16
sI16
(dp17
sI17
(dp18
sI18
(dp19
sI19
(dp20
sI20
(dp21
sI21
(dp22
sI22
(dp23
sI23
(dp24
sI24
(dp25
sI25
(dp26
sI26
(dp27
sI27
(dp28
sI28
(dp29
sI29
(dp30
s.